target datalayout = "e-m:e-p270:32:32-p271:32:32-p272:64:64-i64:64-i128:128-f80:128-n8:16:32:64-S128"
target triple = "x86_64-pc-linux-gnu"

%struct.Tag = type { i16, i16, [4095 x %struct.AliasList] }
%struct.AliasList = type { i16, ptr }
%struct.StringBlock = type { ptr, i32, i32 }

@stderr = external global ptr, align 8
@path = dso_local global ptr null, align 8
@tagStore = internal global [1024 x i8] zeroinitializer, align 16
@tags = internal global [63 x %struct.Tag] zeroinitializer, align 16
@lineNum = internal global i32 1, align 4
@.str.19 = private unnamed_addr constant [4 x i8] c"ALL\00", align 1
@standardTagsUsed = internal global i8 0, align 1
@tagCount = internal global i16 0, align 2
@.str.23 = private unnamed_addr constant [22 x i8] c"%s:%d: too many tags\0A\00", align 1
@.str.24 = private unnamed_addr constant [29 x i8] c"%s:%d: error: too many tags\0A\00", align 1
@tagBlock = internal global %struct.StringBlock { ptr @tagStore, i32 0, i32 1024 }, align 8
@.str.25 = private unnamed_addr constant [77 x i8] c"%s:%d: error: Tag \22%s\22 is not declared at the beginning of the alias table.\0A\00", align 1
@.str.26 = private unnamed_addr constant [122 x i8] c"%s:%d: warning: Tag \22%s\22 was added to the list of standards because it was not declared at beginning of the alias table.\0A\00", align 1

; Function Attrs: nounwind uwtable
define internal zeroext i16 @getTagNumber(ptr noundef %0, i16 noundef zeroext %1) #0 {
  %3 = alloca i16, align 2
  %4 = alloca ptr, align 8
  %5 = alloca i16, align 2
  %6 = alloca ptr, align 8
  %7 = alloca i16, align 2
  %8 = alloca i8, align 1
  %9 = alloca ptr, align 8
  %10 = alloca i32, align 4
  store ptr %0, ptr %4, align 8, !tbaa !17
  store i16 %1, ptr %5, align 2, !tbaa !32
  call void @llvm.lifetime.start.p0(i64 8, ptr %6) #11
  call void @llvm.lifetime.start.p0(i64 2, ptr %7) #11
  call void @llvm.lifetime.start.p0(i64 1, ptr %8) #11
  %11 = load i16, ptr %5, align 2, !tbaa !32
  %12 = zext i16 %11 to i32
  %13 = icmp sgt i32 %12, 0
  br i1 %13, label %14, label %25

14:                                               ; preds = %2
  %15 = load ptr, ptr %4, align 8, !tbaa !17
  %16 = load i16, ptr %5, align 2, !tbaa !32
  %17 = zext i16 %16 to i32
  %18 = sub nsw i32 %17, 1
  %19 = sext i32 %18 to i64
  %20 = getelementptr inbounds i8, ptr %15, i64 %19
  %21 = load i8, ptr %20, align 1, !tbaa !19
  %22 = sext i8 %21 to i32
  %23 = icmp eq i32 %22, 42
  %24 = zext i1 %23 to i32
  br label %26

25:                                               ; preds = %2
  br label %26

26:                                               ; preds = %25, %14
  %27 = phi i32 [ %24, %14 ], [ 0, %25 ]
  %28 = trunc i32 %27 to i8
  store i8 %28, ptr %8, align 1, !tbaa !19
  %29 = load i16, ptr @tagCount, align 2, !tbaa !32
  %30 = zext i16 %29 to i32
  %31 = icmp sge i32 %30, 63
  br i1 %31, label %32, label %37

32:                                               ; preds = %26
  %33 = load ptr, ptr @stderr, align 8, !tbaa !15
  %34 = load ptr, ptr @path, align 8, !tbaa !17
  %35 = load i32, ptr @lineNum, align 4, !tbaa !4
  %36 = call i32 (ptr, ptr, ...) @fprintf(ptr noundef %33, ptr noundef @.str.23, ptr noundef %34, i32 noundef %35) #11
  call void @exit(i32 noundef 15) #13
  unreachable

37:                                               ; preds = %26
  %38 = load i8, ptr %8, align 1, !tbaa !19
  %39 = icmp ne i8 %38, 0
  br i1 %39, label %40, label %43

40:                                               ; preds = %37
  %41 = load i16, ptr %5, align 2, !tbaa !32
  %42 = add i16 %41, -1
  store i16 %42, ptr %5, align 2, !tbaa !32
  br label %43

43:                                               ; preds = %40, %37
  store i16 0, ptr %7, align 2, !tbaa !32
  br label %44

44:                                               ; preds = %77, %43
  %45 = load i16, ptr %7, align 2, !tbaa !32
  %46 = zext i16 %45 to i32
  %47 = load i16, ptr @tagCount, align 2, !tbaa !32
  %48 = zext i16 %47 to i32
  %49 = icmp slt i32 %46, %48
  br i1 %49, label %50, label %80

50:                                               ; preds = %44
  call void @llvm.lifetime.start.p0(i64 8, ptr %9) #11
  %51 = load i16, ptr %7, align 2, !tbaa !32
  %52 = zext i16 %51 to i64
  %53 = getelementptr inbounds nuw [63 x %struct.Tag], ptr @tags, i64 0, i64 %52
  %54 = getelementptr inbounds nuw %struct.Tag, ptr %53, i32 0, i32 0
  %55 = load i16, ptr %54, align 8, !tbaa !42
  %56 = zext i16 %55 to i64
  %57 = shl i64 %56, 1
  %58 = getelementptr inbounds nuw i8, ptr @tagStore, i64 %57
  store ptr %58, ptr %9, align 8, !tbaa !17
  %59 = load ptr, ptr %9, align 8, !tbaa !17
  %60 = call i64 @strlen(ptr noundef %59) #12
  %61 = load i16, ptr %5, align 2, !tbaa !32
  %62 = zext i16 %61 to i64
  %63 = icmp eq i64 %60, %62
  br i1 %63, label %64, label %73

64:                                               ; preds = %50
  %65 = load ptr, ptr %9, align 8, !tbaa !17
  %66 = load ptr, ptr %4, align 8, !tbaa !17
  %67 = load i16, ptr %5, align 2, !tbaa !32
  %68 = zext i16 %67 to i32
  %69 = call i32 @uprv_strnicmp_77(ptr noundef %65, ptr noundef %66, i32 noundef %68)
  %70 = icmp ne i32 %69, 0
  br i1 %70, label %73, label %71

71:                                               ; preds = %64
  %72 = load i16, ptr %7, align 2, !tbaa !32
  store i16 %72, ptr %3, align 2
  store i32 1, ptr %10, align 4
  br label %74

73:                                               ; preds = %64, %50
  store i32 0, ptr %10, align 4
  br label %74

74:                                               ; preds = %73, %71
  call void @llvm.lifetime.end.p0(i64 8, ptr %9) #11
  %75 = load i32, ptr %10, align 4
  switch i32 %75, label %129 [
    i32 0, label %76
  ]

76:                                               ; preds = %74
  br label %77

77:                                               ; preds = %76
  %78 = load i16, ptr %7, align 2, !tbaa !32
  %79 = add i16 %78, 1
  store i16 %79, ptr %7, align 2, !tbaa !32
  br label %44, !llvm.loop !46

80:                                               ; preds = %44
  %81 = load i16, ptr @tagCount, align 2, !tbaa !32
  %82 = zext i16 %81 to i32
  %83 = icmp sge i32 %82, 63
  br i1 %83, label %84, label %89

84:                                               ; preds = %80
  %85 = load ptr, ptr @stderr, align 8, !tbaa !15
  %86 = load ptr, ptr @path, align 8, !tbaa !17
  %87 = load i32, ptr @lineNum, align 4, !tbaa !4
  %88 = call i32 (ptr, ptr, ...) @fprintf(ptr noundef %85, ptr noundef @.str.24, ptr noundef %86, i32 noundef %87) #11
  call void @exit(i32 noundef 15) #13
  unreachable

89:                                               ; preds = %80
  %90 = load ptr, ptr %4, align 8, !tbaa !17
  %91 = load i16, ptr %5, align 2, !tbaa !32
  %92 = zext i16 %91 to i32
  %93 = call ptr @allocString(ptr noundef @tagBlock, ptr noundef %90, i32 noundef %92)
  store ptr %93, ptr %6, align 8, !tbaa !17
  %94 = load i8, ptr @standardTagsUsed, align 1, !tbaa !19
  %95 = icmp ne i8 %94, 0
  br i1 %95, label %96, label %102

96:                                               ; preds = %89
  %97 = load ptr, ptr @stderr, align 8, !tbaa !15
  %98 = load ptr, ptr @path, align 8, !tbaa !17
  %99 = load i32, ptr @lineNum, align 4, !tbaa !4
  %100 = load ptr, ptr %6, align 8, !tbaa !17
  %101 = call i32 (ptr, ptr, ...) @fprintf(ptr noundef %97, ptr noundef @.str.25, ptr noundef %98, i32 noundef %99, ptr noundef %100) #11
  call void @exit(i32 noundef 1) #13
  unreachable

102:                                              ; preds = %89
  %103 = load i16, ptr %5, align 2, !tbaa !32
  %104 = zext i16 %103 to i32
  %105 = icmp sgt i32 %104, 0
  br i1 %105, label %106, label %116

106:                                              ; preds = %102
  %107 = load ptr, ptr %4, align 8, !tbaa !17
  %108 = call i32 @strcmp(ptr noundef %107, ptr noundef @.str.19) #12
  %109 = icmp ne i32 %108, 0
  br i1 %109, label %110, label %116

110:                                              ; preds = %106
  %111 = load ptr, ptr @stderr, align 8, !tbaa !15
  %112 = load ptr, ptr @path, align 8, !tbaa !17
  %113 = load i32, ptr @lineNum, align 4, !tbaa !4
  %114 = load ptr, ptr %6, align 8, !tbaa !17
  %115 = call i32 (ptr, ptr, ...) @fprintf(ptr noundef %111, ptr noundef @.str.26, ptr noundef %112, i32 noundef %113, ptr noundef %114) #11
  br label %116

116:                                              ; preds = %110, %106, %102
  br label %117

117:                                              ; preds = %116
  %118 = load ptr, ptr %6, align 8, !tbaa !17
  %119 = ptrtoint ptr %118 to i64
  %120 = sub i64 %119, ptrtoint (ptr @tagStore to i64)
  %121 = ashr i64 %120, 1
  %122 = trunc i64 %121 to i16
  %123 = load i16, ptr @tagCount, align 2, !tbaa !32
  %124 = zext i16 %123 to i64
  %125 = getelementptr inbounds nuw [63 x %struct.Tag], ptr @tags, i64 0, i64 %124
  %126 = getelementptr inbounds nuw %struct.Tag, ptr %125, i32 0, i32 0
  store i16 %122, ptr %126, align 8, !tbaa !42
  %127 = load i16, ptr @tagCount, align 2, !tbaa !32
  %128 = add i16 %127, 1
  store i16 %128, ptr @tagCount, align 2, !tbaa !32
  store i16 %127, ptr %3, align 2
  store i32 1, ptr %10, align 4
  br label %129

129:                                              ; preds = %117, %74
  call void @llvm.lifetime.end.p0(i64 1, ptr %8) #11
  call void @llvm.lifetime.end.p0(i64 2, ptr %7) #11
  call void @llvm.lifetime.end.p0(i64 8, ptr %6) #11
  %130 = load i16, ptr %3, align 2
  ret i16 %130
}