; Function Attrs: nounwind uwtable
define internal fastcc zeroext i16 @getTagNumber(ptr noundef %0, i16 noundef zeroext %1) unnamed_addr #0 {
  %.not = icmp eq i16 %1, 0
  br i1 %.not, label %11, label %3

3:                                                ; preds = %2
  %4 = zext i16 %1 to i64
  %5 = add nuw nsw i64 %4, 4294967295
  %6 = and i64 %5, 4294967295
  %7 = getelementptr inbounds nuw i8, ptr %0, i64 %6
  %8 = load i8, ptr %7, align 1, !tbaa !16
  %9 = icmp eq i8 %8, 42
  %10 = sext i1 %9 to i16
  br label %11

11:                                               ; preds = %2, %3
  %.not27 = phi i16 [ %10, %3 ], [ 0, %2 ]
  %12 = load i16, ptr @tagCount, align 2, !tbaa !19
  %13 = icmp ugt i16 %12, 62
  br i1 %13, label %14, label %19

14:                                               ; preds = %11
  %15 = load ptr, ptr @stderr, align 8, !tbaa !12
  %16 = load ptr, ptr @path, align 8, !tbaa !14
  %17 = load i32, ptr @lineNum, align 4, !tbaa !4
  %18 = tail call i32 (ptr, ptr, ...) @fprintf(ptr noundef %15, ptr noundef nonnull @.str.23, ptr noundef %16, i32 noundef %17) #17
  tail call void @exit(i32 noundef 15) #19
  unreachable

19:                                               ; preds = %11
  %spec.select = add i16 %.not27, %1
  %.not37 = icmp eq i16 %12, 0
  br i1 %.not37, label %._crit_edge.thread, label %.lr.ph

.lr.ph:                                           ; preds = %19
  %20 = zext i16 %spec.select to i64
  %21 = zext i16 %spec.select to i32
  br label %22

22:                                               ; preds = %.lr.ph, %32
  %.pr41 = phi i16 [ %12, %.lr.ph ], [ %.pr, %32 ]
  %indvars.iv = phi i64 [ 0, %.lr.ph ], [ %indvars.iv.next, %32 ]
  %23 = getelementptr inbounds nuw [63 x %struct.Tag], ptr @tags, i64 0, i64 %indvars.iv
  %24 = load i16, ptr %23, align 8, !tbaa !28
  %25 = zext i16 %24 to i64
  %26 = shl nuw nsw i64 %25, 1
  %27 = getelementptr inbounds nuw i8, ptr @tagStore, i64 %26
  %28 = tail call i64 @strlen(ptr noundef nonnull dereferenceable(1) %27) #18
  %29 = icmp eq i64 %28, %20
  br i1 %29, label %30, label %32

30:                                               ; preds = %22
  %31 = tail call i32 @uprv_strnicmp_77(ptr noundef nonnull %27, ptr noundef %0, i32 noundef %21) #16
  %.not30 = icmp eq i32 %31, 0
  br i1 %.not30, label %.loopexit.loopexit, label %._crit_edge40

._crit_edge40:                                    ; preds = %30
  %.pr.pre = load i16, ptr @tagCount, align 2, !tbaa !19
  br label %32

32:                                               ; preds = %._crit_edge40, %22
  %.pr = phi i16 [ %.pr.pre, %._crit_edge40 ], [ %.pr41, %22 ]
  %indvars.iv.next = add nuw nsw i64 %indvars.iv, 1
  %33 = zext i16 %.pr to i64
  %34 = icmp samesign ult i64 %indvars.iv.next, %33
  br i1 %34, label %22, label %._crit_edge, !llvm.loop !59

._crit_edge:                                      ; preds = %32
  %35 = icmp ugt i16 %.pr, 62
  br i1 %35, label %36, label %._crit_edge.thread

36:                                               ; preds = %._crit_edge
  %37 = load ptr, ptr @stderr, align 8, !tbaa !12
  %38 = load ptr, ptr @path, align 8, !tbaa !14
  %39 = load i32, ptr @lineNum, align 4, !tbaa !4
  %40 = tail call i32 (ptr, ptr, ...) @fprintf(ptr noundef %37, ptr noundef nonnull @.str.24, ptr noundef %38, i32 noundef %39) #17
  tail call void @exit(i32 noundef 15) #19
  unreachable

._crit_edge.thread:                               ; preds = %19, %._crit_edge
  %41 = zext i16 %spec.select to i32
  %42 = tail call fastcc ptr @allocString(ptr noundef nonnull @tagBlock, ptr noundef %0, i32 noundef %41)
  %.b = load i1, ptr @standardTagsUsed, align 1
  br i1 %.b, label %43, label %48

43:                                               ; preds = %._crit_edge.thread
  %44 = load ptr, ptr @stderr, align 8, !tbaa !12
  %45 = load ptr, ptr @path, align 8, !tbaa !14
  %46 = load i32, ptr @lineNum, align 4, !tbaa !4
  %47 = tail call i32 (ptr, ptr, ...) @fprintf(ptr noundef %44, ptr noundef nonnull @.str.25, ptr noundef %45, i32 noundef %46, ptr noundef %42) #17
  tail call void @exit(i32 noundef 1) #19
  unreachable

48:                                               ; preds = %._crit_edge.thread
  %.not28 = icmp eq i16 %spec.select, 0
  br i1 %.not28, label %56, label %49

49:                                               ; preds = %48
  %50 = tail call i32 @strcmp(ptr noundef nonnull dereferenceable(1) %0, ptr noundef nonnull dereferenceable(4) @.str.19) #18
  %.not29 = icmp eq i32 %50, 0
  br i1 %.not29, label %56, label %51

51:                                               ; preds = %49
  %52 = load ptr, ptr @stderr, align 8, !tbaa !12
  %53 = load ptr, ptr @path, align 8, !tbaa !14
  %54 = load i32, ptr @lineNum, align 4, !tbaa !4
  %55 = tail call i32 (ptr, ptr, ...) @fprintf(ptr noundef %52, ptr noundef nonnull @.str.26, ptr noundef %53, i32 noundef %54, ptr noundef %42) #17
  br label %56

56:                                               ; preds = %48, %49, %51
  %57 = ptrtoint ptr %42 to i64
  %58 = sub i64 %57, ptrtoint (ptr @tagStore to i64)
  %59 = lshr i64 %58, 1
  %60 = trunc i64 %59 to i16
  %61 = load i16, ptr @tagCount, align 2, !tbaa !19
  %62 = zext i16 %61 to i64
  %63 = getelementptr inbounds nuw [63 x %struct.Tag], ptr @tags, i64 0, i64 %62
  store i16 %60, ptr %63, align 8, !tbaa !28
  %64 = add i16 %61, 1
  store i16 %64, ptr @tagCount, align 2, !tbaa !19
  br label %.loopexit

.loopexit.loopexit:                               ; preds = %30
  %65 = trunc nuw i64 %indvars.iv to i16
  br label %.loopexit

.loopexit:                                        ; preds = %.loopexit.loopexit, %56
  %.2 = phi i16 [ %61, %56 ], [ %65, %.loopexit.loopexit ]
  ret i16 %.2
}